; Function Attrs: nounwind uwtable
define i32 @H5Idec_type_ref(i32 noundef %0) local_unnamed_addr #0 {
  %2 = load i8, ptr @H5_libinit_g, align 1
  %3 = trunc i8 %2 to i1
  %4 = load i8, ptr @H5_libterm_g, align 1
  %5 = trunc i8 %4 to i1
  %6 = select i1 %3, i1 true, i1 %5
  br i1 %6, label %14, label %7

7:                                                ; preds = %1
  %8 = tail call i32 @H5_init_library() #3
  %9 = icmp slt i32 %8, 0
  br i1 %9, label %10, label %14

10:                                               ; preds = %7
  %11 = load i64, ptr @H5E_FUNC_g, align 8
  %12 = load i64, ptr @H5E_CANTINIT_g, align 8
  %13 = tail call i32 (ptr, ptr, i32, i64, i64, ptr, ...) @H5E_printf_stack(ptr noundef nonnull @.str, ptr noundef nonnull @__func__.H5Idec_type_ref, i32 noundef 586, i64 noundef %11, i64 noundef %12, ptr noundef nonnull @.str.1) #3
  br label %.thread20

14:                                               ; preds = %7, %1
  %15 = tail call i32 @H5CX_push() #3
  %16 = icmp slt i32 %15, 0
  br i1 %16, label %17, label %21

17:                                               ; preds = %14
  %18 = load i64, ptr @H5E_FUNC_g, align 8
  %19 = load i64, ptr @H5E_CANTSET_g, align 8
  %20 = tail call i32 (ptr, ptr, i32, i64, i64, ptr, ...) @H5E_printf_stack(ptr noundef nonnull @.str, ptr noundef nonnull @__func__.H5Idec_type_ref, i32 noundef 586, i64 noundef %18, i64 noundef %19, ptr noundef nonnull @.str.2) #3
  br label %.thread20

21:                                               ; preds = %14
  %22 = tail call i32 @H5E_clear_stack() #3
  %23 = add i32 %0, -1
  %or.cond = icmp ult i32 %23, 16
  br i1 %or.cond, label %.thread25, label %28

.thread25:                                        ; preds = %21
  %24 = load i64, ptr @H5E_ID_g, align 8
  %25 = load i64, ptr @H5E_BADGROUP_g, align 8
  %26 = tail call i32 (ptr, ptr, i32, i64, i64, ptr, ...) @H5E_printf_stack(ptr noundef nonnull @.str, ptr noundef nonnull @__func__.H5Idec_type_ref, i32 noundef 589, i64 noundef %24, i64 noundef %25, ptr noundef nonnull @.str.6) #3
  %27 = tail call i32 @H5CX_pop(i1 noundef zeroext true) #3
  br label %.thread20

28:                                               ; preds = %21
  %29 = tail call i32 @H5I_dec_type_ref(i32 noundef %0) #3
  %30 = tail call i32 @H5CX_pop(i1 noundef zeroext true) #3
  br label %32

.thread20:                                        ; preds = %17, %10, %.thread25
  %31 = tail call i32 @H5E_dump_api_stack() #3
  br label %32

32:                                               ; preds = %28, %.thread20
  %.0111523 = phi i32 [ -1, %.thread20 ], [ %29, %28 ]
  ret i32 %.0111523
}